target datalayout = "e-m:e-p270:32:32-p271:32:32-p272:64:64-i64:64-i128:128-f80:128-n8:16:32:64-S128"
target triple = "x86_64-pc-linux-gnu"

%struct.archive_entry = type { ptr, ptr, i32, %struct.aest, i32, %struct.archive_mstring, i64, i64, %struct.archive_mstring, %struct.archive_mstring, %struct.archive_mstring, %struct.archive_mstring, %struct.archive_mstring, i8, ptr, i64, %struct.ae_digest, %struct.archive_acl, ptr, ptr, ptr, ptr, ptr, [12 x i8], i32 }
%struct.aest = type { i64, i32, i64, i32, i64, i32, i64, i32, i64, i64, i32, i64, i64, i32, i64, i64, i64, i32, i64, i64, i64 }
%struct.archive_mstring = type { %struct.archive_string, %struct.archive_string, %struct.archive_wstring, %struct.archive_string, i32 }
%struct.archive_wstring = type { ptr, i64, i64 }
%struct.archive_string = type { ptr, i64, i64 }
%struct.ae_digest = type { [16 x i8], [20 x i8], [20 x i8], [32 x i8], [48 x i8], [64 x i8] }
%struct.archive_acl = type { i32, ptr, ptr, i32, ptr, ptr, i32 }

@.str = private unnamed_addr constant [10 x i8] c"No memory\00", align 1

; Function Attrs: nounwind uwtable
define dso_local ptr @archive_entry_pathname(ptr noundef %0) #0 {
  %2 = alloca ptr, align 8
  %3 = alloca ptr, align 8
  %4 = alloca ptr, align 8
  %5 = alloca i32, align 4
  store ptr %0, ptr %3, align 8, !tbaa !4
  call void @llvm.lifetime.start.p0(i64 8, ptr %4) #13
  %6 = load ptr, ptr %3, align 8, !tbaa !4
  %7 = getelementptr inbounds nuw %struct.archive_entry, ptr %6, i32 0, i32 0
  %8 = load ptr, ptr %7, align 8, !tbaa !30
  %9 = load ptr, ptr %3, align 8, !tbaa !4
  %10 = getelementptr inbounds nuw %struct.archive_entry, ptr %9, i32 0, i32 10
  %11 = call i32 @archive_mstring_get_mbs(ptr noundef %8, ptr noundef %10, ptr noundef %4)
  %12 = icmp eq i32 %11, 0
  br i1 %12, label %13, label %15

13:                                               ; preds = %1
  %14 = load ptr, ptr %4, align 8, !tbaa !67
  store ptr %14, ptr %2, align 8
  store i32 1, ptr %5, align 4
  br label %36

15:                                               ; preds = %1
  %16 = call ptr @__errno_location() #17
  %17 = load i32, ptr %16, align 4, !tbaa !32
  %18 = icmp eq i32 %17, 84
  br i1 %18, label %19, label %30

19:                                               ; preds = %15
  %20 = load ptr, ptr %3, align 8, !tbaa !4
  %21 = getelementptr inbounds nuw %struct.archive_entry, ptr %20, i32 0, i32 0
  %22 = load ptr, ptr %21, align 8, !tbaa !30
  %23 = load ptr, ptr %3, align 8, !tbaa !4
  %24 = getelementptr inbounds nuw %struct.archive_entry, ptr %23, i32 0, i32 10
  %25 = call i32 @archive_mstring_get_utf8(ptr noundef %22, ptr noundef %24, ptr noundef %4)
  %26 = icmp eq i32 %25, 0
  br i1 %26, label %27, label %29

27:                                               ; preds = %19
  %28 = load ptr, ptr %4, align 8, !tbaa !67
  store ptr %28, ptr %2, align 8
  store i32 1, ptr %5, align 4
  br label %36

29:                                               ; preds = %19
  br label %30

30:                                               ; preds = %29, %15
  %31 = call ptr @__errno_location() #17
  %32 = load i32, ptr %31, align 4, !tbaa !32
  %33 = icmp eq i32 %32, 12
  br i1 %33, label %34, label %35

34:                                               ; preds = %30
  call void @__archive_errx(i32 noundef 1, ptr noundef @.str) #18
  unreachable

35:                                               ; preds = %30
  store ptr null, ptr %2, align 8
  store i32 1, ptr %5, align 4
  br label %36

36:                                               ; preds = %35, %27, %13
  call void @llvm.lifetime.end.p0(i64 8, ptr %4) #13
  %37 = load ptr, ptr %2, align 8
  ret ptr %37
}