; Function Attrs: nounwind uwtable
define dso_local ptr @archive_entry_pathname(ptr noundef %0) local_unnamed_addr #0 {
  %2 = alloca ptr, align 8
  call void @llvm.lifetime.start.p0(i64 8, ptr nonnull %2) #21
  %3 = load ptr, ptr %0, align 8, !tbaa !25
  %4 = getelementptr inbounds nuw i8, ptr %0, i64 528
  %5 = call i32 @archive_mstring_get_mbs(ptr noundef %3, ptr noundef nonnull %4, ptr noundef nonnull %2) #21
  %6 = icmp eq i32 %5, 0
  br i1 %6, label %7, label %9

7:                                                ; preds = %1
  %8 = load ptr, ptr %2, align 8, !tbaa !57
  br label %23

9:                                                ; preds = %1
  %10 = tail call ptr @__errno_location() #25
  %11 = load i32, ptr %10, align 4, !tbaa !28
  %12 = icmp eq i32 %11, 84
  br i1 %12, label %13, label %19

13:                                               ; preds = %9
  %14 = load ptr, ptr %0, align 8, !tbaa !25
  %15 = call i32 @archive_mstring_get_utf8(ptr noundef %14, ptr noundef nonnull %4, ptr noundef nonnull %2) #21
  %16 = icmp eq i32 %15, 0
  br i1 %16, label %17, label %thread-pre-split

17:                                               ; preds = %13
  %18 = load ptr, ptr %2, align 8, !tbaa !57
  br label %23

thread-pre-split:                                 ; preds = %13
  %.pr = load i32, ptr %10, align 4, !tbaa !28
  br label %19

19:                                               ; preds = %thread-pre-split, %9
  %20 = phi i32 [ %.pr, %thread-pre-split ], [ %11, %9 ]
  %21 = icmp eq i32 %20, 12
  br i1 %21, label %22, label %23

22:                                               ; preds = %19
  call void @__archive_errx(i32 noundef 1, ptr noundef nonnull @.str) #23
  unreachable

23:                                               ; preds = %19, %17, %7
  %.0 = phi ptr [ %8, %7 ], [ %18, %17 ], [ null, %19 ]
  call void @llvm.lifetime.end.p0(i64 8, ptr nonnull %2) #21
  ret ptr %.0
}